target datalayout = "e-m:e-p270:32:32-p271:32:32-p272:64:64-i64:64-i128:128-f80:128-n8:16:32:64-S128"
target triple = "x86_64-pc-linux-gnu"

; Function Attrs: nounwind uwtable
define i32 @BN_mod_exp_mont_consttime(ptr noundef %0, ptr noundef %1, ptr noundef %2, ptr noundef %3, ptr noundef %4, ptr noundef %5) #0 {
  %7 = alloca i32, align 4
  %8 = alloca ptr, align 8
  %9 = alloca ptr, align 8
  %10 = alloca ptr, align 8
  %11 = alloca ptr, align 8
  %12 = alloca ptr, align 8
  %13 = alloca ptr, align 8
  store ptr %0, ptr %8, align 8, !tbaa !3
  store ptr %1, ptr %9, align 8, !tbaa !3
  store ptr %2, ptr %10, align 8, !tbaa !3
  store ptr %3, ptr %11, align 8, !tbaa !3
  store ptr %4, ptr %12, align 8, !tbaa !8
  store ptr %5, ptr %13, align 8, !tbaa !21
  %14 = load ptr, ptr %8, align 8, !tbaa !3
  %15 = load ptr, ptr %9, align 8, !tbaa !3
  %16 = load ptr, ptr %10, align 8, !tbaa !3
  %17 = load ptr, ptr %11, align 8, !tbaa !3
  %18 = load ptr, ptr %12, align 8, !tbaa !8
  %19 = load ptr, ptr %13, align 8, !tbaa !21
  %20 = call i32 @bn_mod_exp_mont_fixed_top(ptr noundef %14, ptr noundef %15, ptr noundef %16, ptr noundef %17, ptr noundef %18, ptr noundef %19)
  %21 = icmp ne i32 %20, 0
  br i1 %21, label %23, label %22

22:                                               ; preds = %6
  store i32 0, ptr %7, align 4
  br label %25

23:                                               ; preds = %6
  %24 = load ptr, ptr %8, align 8, !tbaa !3
  call void @bn_correct_top(ptr noundef %24)
  store i32 1, ptr %7, align 4
  br label %25

25:                                               ; preds = %23, %22
  %26 = load i32, ptr %7, align 4
  ret i32 %26
}