; Function Attrs: nounwind uwtable
define range(i32 0, 2) i32 @BN_mod_exp_mont_consttime(ptr noundef %0, ptr noundef %1, ptr noundef %2, ptr noundef %3, ptr noundef %4, ptr noundef %5) local_unnamed_addr #0 {
  %7 = tail call i32 @bn_mod_exp_mont_fixed_top(ptr noundef %0, ptr noundef %1, ptr noundef %2, ptr noundef %3, ptr noundef %4, ptr noundef %5)
  %.not = icmp eq i32 %7, 0
  br i1 %.not, label %9, label %8

8:                                                ; preds = %6
  tail call void @bn_correct_top(ptr noundef %0) #6
  br label %9

9:                                                ; preds = %6, %8
  %.0 = phi i32 [ 1, %8 ], [ 0, %6 ]
  ret i32 %.0
}